target datalayout = "e-m:e-p270:32:32-p271:32:32-p272:64:64-i64:64-i128:128-f80:128-n8:16:32:64-S128"
target triple = "x86_64-pc-linux-gnu"

%"class.net::IPAddress" = type { %"class.std::vector" }
%"class.std::vector" = type { %"struct.std::_Vector_base" }
%"struct.std::_Vector_base" = type { %"struct.std::_Vector_base<unsigned char, std::allocator<unsigned char>>::_Vector_impl" }
%"struct.std::_Vector_base<unsigned char, std::allocator<unsigned char>>::_Vector_impl" = type { %"struct.std::_Vector_base<unsigned char, std::allocator<unsigned char>>::_Vector_impl_data" }
%"struct.std::_Vector_base<unsigned char, std::allocator<unsigned char>>::_Vector_impl_data" = type { ptr, ptr, ptr }
%"class.logging::CheckOpResult" = type { ptr }
%"class.logging::LogMessage" = type <{ i32, [4 x i8], %"class.std::__cxx11::basic_ostringstream", i64, ptr, i32, [4 x i8] }>
%"class.std::__cxx11::basic_ostringstream" = type { %"class.std::basic_ostream.base", %"class.std::__cxx11::basic_stringbuf", %"class.std::basic_ios" }
%"class.std::basic_ostream.base" = type { ptr }
%"class.std::__cxx11::basic_stringbuf" = type { %"class.std::basic_streambuf", i32, %"class.std::__cxx11::basic_string" }
%"class.std::basic_streambuf" = type { ptr, ptr, ptr, ptr, ptr, ptr, ptr, %"class.std::locale" }
%"class.std::locale" = type { ptr }
%"class.std::__cxx11::basic_string" = type { %"struct.std::__cxx11::basic_string<char>::_Alloc_hider", i64, %union.anon }
%"struct.std::__cxx11::basic_string<char>::_Alloc_hider" = type { ptr }
%union.anon = type { i64, [8 x i8] }
%"class.std::basic_ios" = type { %"class.std::ios_base", ptr, i8, i8, ptr, ptr, ptr, ptr }
%"class.std::ios_base" = type { ptr, i64, i64, i32, i32, i32, ptr, %"struct.std::ios_base::_Words", [8 x %"struct.std::ios_base::_Words"], i32, ptr, %"class.std::locale" }
%"struct.std::ios_base::_Words" = type { ptr, i64 }

@.str.2 = private unnamed_addr constant [120 x i8] c"generated/home/dtcxzyw/WorkSpace/Projects/compilers/llvm-opt-benchmark/bench/libquic/libquic/src/net/base/ip_address.cc\00", align 1
@_ZN3net9IPAddressD1Ev = unnamed_addr alias void (ptr), ptr @_ZN3net9IPAddressD2Ev

; Function Attrs: mustprogress nounwind uwtable
define linkonce_odr noundef nonnull align 1 dereferenceable(1) ptr @_ZNKSt6vectorIhSaIhEEixEm(ptr noundef nonnull align 8 dereferenceable(24) %0, i64 noundef %1) #0 comdat align 2 {
  %3 = alloca ptr, align 8
  %4 = alloca i64, align 8
  store ptr %0, ptr %3, align 8, !tbaa !8
  store i64 %1, ptr %4, align 8, !tbaa !15
  %5 = load ptr, ptr %3, align 8
  %6 = getelementptr inbounds nuw %"struct.std::_Vector_base", ptr %5, i32 0, i32 0
  %7 = getelementptr inbounds nuw %"struct.std::_Vector_base<unsigned char, std::allocator<unsigned char>>::_Vector_impl_data", ptr %6, i32 0, i32 0
  %8 = load ptr, ptr %7, align 8, !tbaa !10
  %9 = load i64, ptr %4, align 8, !tbaa !15
  %10 = getelementptr inbounds nuw i8, ptr %8, i64 %9
  ret ptr %10
}

; Function Attrs: mustprogress nounwind uwtable
define linkonce_odr noundef ptr @_ZNKSt6vectorIhSaIhEE11_M_data_ptrIhEEPT_S4_(ptr noundef nonnull align 8 dereferenceable(24) %0, ptr noundef %1) #0 comdat align 2 {
  %3 = alloca ptr, align 8
  %4 = alloca ptr, align 8
  store ptr %0, ptr %3, align 8, !tbaa !8
  store ptr %1, ptr %4, align 8, !tbaa !14
  %5 = load ptr, ptr %4, align 8, !tbaa !14
  ret ptr %5
}

; Function Attrs: mustprogress nounwind uwtable
define linkonce_odr noundef i64 @_ZNKSt6vectorIhSaIhEE4sizeEv(ptr noundef nonnull align 8 dereferenceable(24) %0) #0 comdat align 2 {
  %2 = alloca ptr, align 8
  store ptr %0, ptr %2, align 8, !tbaa !8
  %3 = load ptr, ptr %2, align 8
  %4 = getelementptr inbounds nuw %"struct.std::_Vector_base", ptr %3, i32 0, i32 0
  %5 = getelementptr inbounds nuw %"struct.std::_Vector_base<unsigned char, std::allocator<unsigned char>>::_Vector_impl_data", ptr %4, i32 0, i32 1
  %6 = load ptr, ptr %5, align 8, !tbaa !13
  %7 = getelementptr inbounds nuw %"struct.std::_Vector_base", ptr %3, i32 0, i32 0
  %8 = getelementptr inbounds nuw %"struct.std::_Vector_base<unsigned char, std::allocator<unsigned char>>::_Vector_impl_data", ptr %7, i32 0, i32 0
  %9 = load ptr, ptr %8, align 8, !tbaa !10
  %10 = ptrtoint ptr %6 to i64
  %11 = ptrtoint ptr %9 to i64
  %12 = sub i64 %10, %11
  ret i64 %12
}

; Function Attrs: mustprogress nounwind uwtable
define internal noundef zeroext i1 @_ZN12_GLOBAL__N_120IPAddressPrefixCheckERKSt6vectorIhSaIhEEPKhm(ptr noundef nonnull align 8 dereferenceable(24) %0, ptr noundef %1, i64 noundef %2) #0 {
  %4 = alloca i1, align 1
  %5 = alloca ptr, align 8
  %6 = alloca ptr, align 8
  %7 = alloca i64, align 8
  %8 = alloca i64, align 8
  %9 = alloca i64, align 8
  %10 = alloca i32, align 4
  %11 = alloca i64, align 8
  %12 = alloca i8, align 1
  %13 = alloca i64, align 8
  store ptr %0, ptr %5, align 8, !tbaa !8
  store ptr %1, ptr %6, align 8, !tbaa !14
  store i64 %2, ptr %7, align 8, !tbaa !15
  call void @llvm.lifetime.start.p0(i64 8, ptr %8) #16
  %14 = load i64, ptr %7, align 8, !tbaa !15
  %15 = udiv i64 %14, 8
  store i64 %15, ptr %8, align 8, !tbaa !15
  call void @llvm.lifetime.start.p0(i64 8, ptr %9) #16
  store i64 0, ptr %9, align 8, !tbaa !15
  br label %16

16:                                               ; preds = %35, %3
  %17 = load i64, ptr %9, align 8, !tbaa !15
  %18 = load i64, ptr %8, align 8, !tbaa !15
  %19 = icmp ult i64 %17, %18
  br i1 %19, label %21, label %20

20:                                               ; preds = %16
  store i32 2, ptr %10, align 4
  br label %38

21:                                               ; preds = %16
  %22 = load ptr, ptr %5, align 8, !tbaa !8
  %23 = load i64, ptr %9, align 8, !tbaa !15
  %24 = call noundef nonnull align 1 dereferenceable(1) ptr @_ZNKSt6vectorIhSaIhEEixEm(ptr noundef nonnull align 8 dereferenceable(24) %22, i64 noundef %23) #16
  %25 = load i8, ptr %24, align 1, !tbaa !19
  %26 = zext i8 %25 to i32
  %27 = load ptr, ptr %6, align 8, !tbaa !14
  %28 = load i64, ptr %9, align 8, !tbaa !15
  %29 = getelementptr inbounds nuw i8, ptr %27, i64 %28
  %30 = load i8, ptr %29, align 1, !tbaa !19
  %31 = zext i8 %30 to i32
  %32 = icmp ne i32 %26, %31
  br i1 %32, label %33, label %34

33:                                               ; preds = %21
  store i1 false, ptr %4, align 1
  store i32 1, ptr %10, align 4
  br label %38

34:                                               ; preds = %21
  br label %35

35:                                               ; preds = %34
  %36 = load i64, ptr %9, align 8, !tbaa !15
  %37 = add i64 %36, 1
  store i64 %37, ptr %9, align 8, !tbaa !15
  br label %16, !llvm.loop !53

38:                                               ; preds = %33, %20
  call void @llvm.lifetime.end.p0(i64 8, ptr %9) #16
  %39 = load i32, ptr %10, align 4
  switch i32 %39, label %76 [
    i32 2, label %40
  ]

40:                                               ; preds = %38
  call void @llvm.lifetime.start.p0(i64 8, ptr %11) #16
  %41 = load i64, ptr %7, align 8, !tbaa !15
  %42 = urem i64 %41, 8
  store i64 %42, ptr %11, align 8, !tbaa !15
  %43 = load i64, ptr %11, align 8, !tbaa !15
  %44 = icmp ne i64 %43, 0
  br i1 %44, label %45, label %74

45:                                               ; preds = %40
  call void @llvm.lifetime.start.p0(i64 1, ptr %12) #16
  %46 = load i64, ptr %11, align 8, !tbaa !15
  %47 = sub i64 8, %46
  %48 = trunc i64 %47 to i32
  %49 = shl i32 255, %48
  %50 = trunc i32 %49 to i8
  store i8 %50, ptr %12, align 1, !tbaa !19
  call void @llvm.lifetime.start.p0(i64 8, ptr %13) #16
  %51 = load i64, ptr %8, align 8, !tbaa !15
  store i64 %51, ptr %13, align 8, !tbaa !15
  %52 = load ptr, ptr %5, align 8, !tbaa !8
  %53 = load i64, ptr %13, align 8, !tbaa !15
  %54 = call noundef nonnull align 1 dereferenceable(1) ptr @_ZNKSt6vectorIhSaIhEEixEm(ptr noundef nonnull align 8 dereferenceable(24) %52, i64 noundef %53) #16
  %55 = load i8, ptr %54, align 1, !tbaa !19
  %56 = zext i8 %55 to i32
  %57 = load i8, ptr %12, align 1, !tbaa !19
  %58 = zext i8 %57 to i32
  %59 = and i32 %56, %58
  %60 = load ptr, ptr %6, align 8, !tbaa !14
  %61 = load i64, ptr %13, align 8, !tbaa !15
  %62 = getelementptr inbounds nuw i8, ptr %60, i64 %61
  %63 = load i8, ptr %62, align 1, !tbaa !19
  %64 = zext i8 %63 to i32
  %65 = load i8, ptr %12, align 1, !tbaa !19
  %66 = zext i8 %65 to i32
  %67 = and i32 %64, %66
  %68 = icmp ne i32 %59, %67
  br i1 %68, label %69, label %70

69:                                               ; preds = %45
  store i1 false, ptr %4, align 1
  store i32 1, ptr %10, align 4
  br label %71

70:                                               ; preds = %45
  store i32 0, ptr %10, align 4
  br label %71

71:                                               ; preds = %70, %69
  call void @llvm.lifetime.end.p0(i64 8, ptr %13) #16
  call void @llvm.lifetime.end.p0(i64 1, ptr %12) #16
  %72 = load i32, ptr %10, align 4
  switch i32 %72, label %75 [
    i32 0, label %73
  ]

73:                                               ; preds = %71
  br label %74

74:                                               ; preds = %73, %40
  store i1 true, ptr %4, align 1
  store i32 1, ptr %10, align 4
  br label %75

75:                                               ; preds = %74, %71
  call void @llvm.lifetime.end.p0(i64 8, ptr %11) #16
  br label %76

76:                                               ; preds = %75, %38
  call void @llvm.lifetime.end.p0(i64 8, ptr %8) #16
  %77 = load i1, ptr %4, align 1
  ret i1 %77
}

; Function Attrs: mustprogress nounwind uwtable
define linkonce_odr noundef ptr @_ZNKSt6vectorIhSaIhEE4dataEv(ptr noundef nonnull align 8 dereferenceable(24) %0) #0 comdat align 2 {
  %2 = alloca ptr, align 8
  store ptr %0, ptr %2, align 8, !tbaa !8
  %3 = load ptr, ptr %2, align 8
  %4 = getelementptr inbounds nuw %"struct.std::_Vector_base", ptr %3, i32 0, i32 0
  %5 = getelementptr inbounds nuw %"struct.std::_Vector_base<unsigned char, std::allocator<unsigned char>>::_Vector_impl_data", ptr %4, i32 0, i32 0
  %6 = load ptr, ptr %5, align 8, !tbaa !10
  %7 = call noundef ptr @_ZNKSt6vectorIhSaIhEE11_M_data_ptrIhEEPT_S4_(ptr noundef nonnull align 8 dereferenceable(24) %3, ptr noundef %6) #16
  ret ptr %7
}

; Function Attrs: mustprogress nounwind uwtable
define linkonce_odr noundef nonnull align 8 dereferenceable(24) ptr @_ZNK3net9IPAddress5bytesEv(ptr noundef nonnull align 8 dereferenceable(24) %0) #0 comdat align 2 {
  %2 = alloca ptr, align 8
  store ptr %0, ptr %2, align 8, !tbaa !3
  %3 = load ptr, ptr %2, align 8
  %4 = getelementptr inbounds nuw %"class.net::IPAddress", ptr %3, i32 0, i32 0
  ret ptr %4
}

; Function Attrs: mustprogress nounwind uwtable
define noundef zeroext i1 @_ZNK3net9IPAddress6IsIPv4Ev(ptr noundef nonnull align 8 dereferenceable(24) %0) #0 align 2 {
  %2 = alloca ptr, align 8
  store ptr %0, ptr %2, align 8, !tbaa !3
  %3 = load ptr, ptr %2, align 8
  %4 = getelementptr inbounds nuw %"class.net::IPAddress", ptr %3, i32 0, i32 0
  %5 = call noundef i64 @_ZNKSt6vectorIhSaIhEE4sizeEv(ptr noundef nonnull align 8 dereferenceable(24) %4) #16
  %6 = icmp eq i64 %5, 4
  ret i1 %6
}

; Function Attrs: mustprogress nounwind uwtable
define linkonce_odr noundef i64 @_ZNK3net9IPAddress4sizeEv(ptr noundef nonnull align 8 dereferenceable(24) %0) #0 comdat align 2 {
  %2 = alloca ptr, align 8
  store ptr %0, ptr %2, align 8, !tbaa !3
  %3 = load ptr, ptr %2, align 8
  %4 = getelementptr inbounds nuw %"class.net::IPAddress", ptr %3, i32 0, i32 0
  %5 = call noundef i64 @_ZNKSt6vectorIhSaIhEE4sizeEv(ptr noundef nonnull align 8 dereferenceable(24) %4) #16
  ret i64 %5
}

; Function Attrs: mustprogress nounwind uwtable
define linkonce_odr noundef nonnull align 8 dereferenceable(8) ptr @_ZN7logging10LogMessage6streamEv(ptr noundef nonnull align 8 dereferenceable(404) %0) #0 comdat align 2 {
  %2 = alloca ptr, align 8
  store ptr %0, ptr %2, align 8, !tbaa !51
  %3 = load ptr, ptr %2, align 8
  %4 = getelementptr inbounds nuw %"class.logging::LogMessage", ptr %3, i32 0, i32 2
  ret ptr %4
}

; Function Attrs: mustprogress nounwind uwtable
define linkonce_odr noundef ptr @_ZN7logging13CheckOpResult7messageB5cxx11Ev(ptr noundef nonnull align 8 dereferenceable(8) %0) #0 comdat align 2 {
  %2 = alloca ptr, align 8
  store ptr %0, ptr %2, align 8, !tbaa !47
  %3 = load ptr, ptr %2, align 8
  %4 = getelementptr inbounds nuw %"class.logging::CheckOpResult", ptr %3, i32 0, i32 0
  %5 = load ptr, ptr %4, align 8, !tbaa !49
  ret ptr %5
}

; Function Attrs: mustprogress nounwind uwtable
define linkonce_odr noundef zeroext i1 @_ZNK7logging13CheckOpResultcvbEv(ptr noundef nonnull align 8 dereferenceable(8) %0) #0 comdat align 2 {
  %2 = alloca ptr, align 8
  store ptr %0, ptr %2, align 8, !tbaa !47
  %3 = load ptr, ptr %2, align 8
  %4 = getelementptr inbounds nuw %"class.logging::CheckOpResult", ptr %3, i32 0, i32 0
  %5 = load ptr, ptr %4, align 8, !tbaa !49
  %6 = icmp ne ptr %5, null
  %7 = xor i1 %6, true
  ret i1 %7
}

; Function Attrs: mustprogress nounwind uwtable
define linkonce_odr void @_ZN7logging13CheckOpResultC2EPNSt7__cxx1112basic_stringIcSt11char_traitsIcESaIcEEE(ptr noundef nonnull align 8 dereferenceable(8) %0, ptr noundef %1) unnamed_addr #0 comdat align 2 {
  %3 = alloca ptr, align 8
  %4 = alloca ptr, align 8
  store ptr %0, ptr %3, align 8, !tbaa !47
  store ptr %1, ptr %4, align 8, !tbaa !36
  %5 = load ptr, ptr %3, align 8
  %6 = getelementptr inbounds nuw %"class.logging::CheckOpResult", ptr %5, i32 0, i32 0
  %7 = load ptr, ptr %4, align 8, !tbaa !36
  store ptr %7, ptr %6, align 8, !tbaa !49
  ret void
}

; Function Attrs: mustprogress uwtable
define noundef zeroext i1 @_ZN3net22IPAddressMatchesPrefixERKNS_9IPAddressES2_m(ptr noundef nonnull align 8 dereferenceable(24) %0, ptr noundef nonnull align 8 dereferenceable(24) %1, i64 noundef %2) #1 personality ptr @__gxx_personality_v0 {
  %4 = alloca i1, align 1
  %5 = alloca ptr, align 8
  %6 = alloca ptr, align 8
  %7 = alloca i64, align 8
  %8 = alloca %"class.logging::CheckOpResult", align 8
  %9 = alloca %"class.logging::LogMessage", align 8
  %10 = alloca ptr, align 8
  %11 = alloca i32, align 4
  %12 = alloca %"class.net::IPAddress", align 8
  %13 = alloca %"class.net::IPAddress", align 8
  store ptr %0, ptr %5, align 8, !tbaa !3
  store ptr %1, ptr %6, align 8, !tbaa !3
  store i64 %2, ptr %7, align 8, !tbaa !15
  call void @llvm.lifetime.start.p0(i64 8, ptr %8) #16
  call void @_ZN7logging13CheckOpResultC2EPNSt7__cxx1112basic_stringIcSt11char_traitsIcESaIcEEE(ptr noundef nonnull align 8 dereferenceable(8) %8, ptr noundef null)
  %14 = call noundef zeroext i1 @_ZNK7logging13CheckOpResultcvbEv(ptr noundef nonnull align 8 dereferenceable(8) %8)
  br i1 %14, label %15, label %16

15:                                               ; preds = %3
  br label %24

16:                                               ; preds = %3
  call void @llvm.lifetime.start.p0(i64 408, ptr %9) #16
  %17 = call noundef ptr @_ZN7logging13CheckOpResult7messageB5cxx11Ev(ptr noundef nonnull align 8 dereferenceable(8) %8)
  call void @_ZN7logging10LogMessageC1EPKciiPNSt7__cxx1112basic_stringIcSt11char_traitsIcESaIcEEE(ptr noundef nonnull align 8 dereferenceable(404) %9, ptr noundef @.str.2, i32 noundef 324, i32 noundef 0, ptr noundef %17)
  %18 = invoke noundef nonnull align 8 dereferenceable(8) ptr @_ZN7logging10LogMessage6streamEv(ptr noundef nonnull align 8 dereferenceable(404) %9)
          to label %19 unwind label %20

19:                                               ; preds = %16
  call void @_ZN7logging10LogMessageD1Ev(ptr noundef nonnull align 8 dereferenceable(404) %9) #16
  call void @llvm.lifetime.end.p0(i64 408, ptr %9) #16
  br label %24

20:                                               ; preds = %16
  %21 = landingpad { ptr, i32 }
          cleanup
  %22 = extractvalue { ptr, i32 } %21, 0
  store ptr %22, ptr %10, align 8
  %23 = extractvalue { ptr, i32 } %21, 1
  store i32 %23, ptr %11, align 4
  call void @_ZN7logging10LogMessageD1Ev(ptr noundef nonnull align 8 dereferenceable(404) %9) #16
  call void @llvm.lifetime.end.p0(i64 408, ptr %9) #16
  call void @llvm.lifetime.end.p0(i64 8, ptr %8) #16
  br label %64

24:                                               ; preds = %19, %15
  call void @llvm.lifetime.end.p0(i64 8, ptr %8) #16
  %25 = load ptr, ptr %5, align 8, !tbaa !3
  %26 = call noundef i64 @_ZNK3net9IPAddress4sizeEv(ptr noundef nonnull align 8 dereferenceable(24) %25)
  %27 = load ptr, ptr %6, align 8, !tbaa !3
  %28 = call noundef i64 @_ZNK3net9IPAddress4sizeEv(ptr noundef nonnull align 8 dereferenceable(24) %27)
  %29 = icmp ne i64 %26, %28
  br i1 %29, label %30, label %54

30:                                               ; preds = %24
  %31 = load ptr, ptr %5, align 8, !tbaa !3
  %32 = call noundef zeroext i1 @_ZNK3net9IPAddress6IsIPv4Ev(ptr noundef nonnull align 8 dereferenceable(24) %31)
  br i1 %32, label %33, label %43

33:                                               ; preds = %30
  call void @llvm.lifetime.start.p0(i64 24, ptr %12) #16
  %34 = load ptr, ptr %5, align 8, !tbaa !3
  call void @_ZN3net27ConvertIPv4ToIPv4MappedIPv6ERKNS_9IPAddressE(ptr dead_on_unwind writable sret(%"class.net::IPAddress") align 8 %12, ptr noundef nonnull align 8 dereferenceable(24) %34)
  %35 = load ptr, ptr %6, align 8, !tbaa !3
  %36 = load i64, ptr %7, align 8, !tbaa !15
  %37 = invoke noundef zeroext i1 @_ZN3net22IPAddressMatchesPrefixERKNS_9IPAddressES2_m(ptr noundef nonnull align 8 dereferenceable(24) %12, ptr noundef nonnull align 8 dereferenceable(24) %35, i64 noundef %36)
          to label %38 unwind label %39

38:                                               ; preds = %33
  store i1 %37, ptr %4, align 1
  call void @_ZN3net9IPAddressD1Ev(ptr noundef nonnull align 8 dereferenceable(24) %12) #16
  call void @llvm.lifetime.end.p0(i64 24, ptr %12) #16
  br label %62

39:                                               ; preds = %33
  %40 = landingpad { ptr, i32 }
          cleanup
  %41 = extractvalue { ptr, i32 } %40, 0
  store ptr %41, ptr %10, align 8
  %42 = extractvalue { ptr, i32 } %40, 1
  store i32 %42, ptr %11, align 4
  call void @_ZN3net9IPAddressD1Ev(ptr noundef nonnull align 8 dereferenceable(24) %12) #16
  call void @llvm.lifetime.end.p0(i64 24, ptr %12) #16
  br label %64

43:                                               ; preds = %30
  %44 = load ptr, ptr %5, align 8, !tbaa !3
  call void @llvm.lifetime.start.p0(i64 24, ptr %13) #16
  %45 = load ptr, ptr %6, align 8, !tbaa !3
  call void @_ZN3net27ConvertIPv4ToIPv4MappedIPv6ERKNS_9IPAddressE(ptr dead_on_unwind writable sret(%"class.net::IPAddress") align 8 %13, ptr noundef nonnull align 8 dereferenceable(24) %45)
  %46 = load i64, ptr %7, align 8, !tbaa !15
  %47 = add i64 96, %46
  %48 = invoke noundef zeroext i1 @_ZN3net22IPAddressMatchesPrefixERKNS_9IPAddressES2_m(ptr noundef nonnull align 8 dereferenceable(24) %44, ptr noundef nonnull align 8 dereferenceable(24) %13, i64 noundef %47)
          to label %49 unwind label %50

49:                                               ; preds = %43
  store i1 %48, ptr %4, align 1
  call void @_ZN3net9IPAddressD1Ev(ptr noundef nonnull align 8 dereferenceable(24) %13) #16
  call void @llvm.lifetime.end.p0(i64 24, ptr %13) #16
  br label %62

50:                                               ; preds = %43
  %51 = landingpad { ptr, i32 }
          cleanup
  %52 = extractvalue { ptr, i32 } %51, 0
  store ptr %52, ptr %10, align 8
  %53 = extractvalue { ptr, i32 } %51, 1
  store i32 %53, ptr %11, align 4
  call void @_ZN3net9IPAddressD1Ev(ptr noundef nonnull align 8 dereferenceable(24) %13) #16
  call void @llvm.lifetime.end.p0(i64 24, ptr %13) #16
  br label %64

54:                                               ; preds = %24
  %55 = load ptr, ptr %5, align 8, !tbaa !3
  %56 = call noundef nonnull align 8 dereferenceable(24) ptr @_ZNK3net9IPAddress5bytesEv(ptr noundef nonnull align 8 dereferenceable(24) %55)
  %57 = load ptr, ptr %6, align 8, !tbaa !3
  %58 = call noundef nonnull align 8 dereferenceable(24) ptr @_ZNK3net9IPAddress5bytesEv(ptr noundef nonnull align 8 dereferenceable(24) %57)
  %59 = call noundef ptr @_ZNKSt6vectorIhSaIhEE4dataEv(ptr noundef nonnull align 8 dereferenceable(24) %58) #16
  %60 = load i64, ptr %7, align 8, !tbaa !15
  %61 = call noundef zeroext i1 @_ZN12_GLOBAL__N_120IPAddressPrefixCheckERKSt6vectorIhSaIhEEPKhm(ptr noundef nonnull align 8 dereferenceable(24) %56, ptr noundef %59, i64 noundef %60)
  store i1 %61, ptr %4, align 1
  br label %62

62:                                               ; preds = %54, %49, %38
  %63 = load i1, ptr %4, align 1
  ret i1 %63

64:                                               ; preds = %50, %39, %20
  %65 = load ptr, ptr %10, align 8
  %66 = load i32, ptr %11, align 4
  %67 = insertvalue { ptr, i32 } poison, ptr %65, 0
  %68 = insertvalue { ptr, i32 } %67, i32 %66, 1
  resume { ptr, i32 } %68
}