; Function Attrs: mustprogress uwtable
define noundef zeroext i1 @_ZN3net22IPAddressMatchesPrefixERKNS_9IPAddressES2_m(ptr noundef nonnull readonly align 8 captures(none) dereferenceable(24) %0, ptr noundef nonnull readonly align 8 captures(none) dereferenceable(24) %1, i64 noundef %2) local_unnamed_addr #1 personality ptr @__gxx_personality_v0 {
  %4 = alloca %"class.net::IPAddress", align 8
  %5 = alloca %"class.net::IPAddress", align 8
  %6 = getelementptr inbounds nuw i8, ptr %0, i64 8
  %7 = load ptr, ptr %6, align 8, !tbaa !3
  %8 = load ptr, ptr %0, align 8, !tbaa !9
  %9 = ptrtoint ptr %7 to i64
  %10 = ptrtoint ptr %8 to i64
  %11 = sub i64 %9, %10
  %12 = getelementptr inbounds nuw i8, ptr %1, i64 8
  %13 = load ptr, ptr %12, align 8, !tbaa !3
  %14 = load ptr, ptr %1, align 8, !tbaa !9
  %15 = ptrtoint ptr %13 to i64
  %16 = ptrtoint ptr %14 to i64
  %17 = sub i64 %15, %16
  %.not = icmp eq i64 %11, %17
  br i1 %.not, label %31, label %18

18:                                               ; preds = %3
  %19 = icmp eq i64 %11, 4
  br i1 %19, label %20, label %25

20:                                               ; preds = %18
  call void @llvm.lifetime.start.p0(i64 24, ptr nonnull %4) #21
  call void @_ZN3net27ConvertIPv4ToIPv4MappedIPv6ERKNS_9IPAddressE(ptr dead_on_unwind nonnull writable sret(%"class.net::IPAddress") align 8 %4, ptr noundef nonnull align 8 dereferenceable(24) %0)
  %21 = invoke noundef zeroext i1 @_ZN3net22IPAddressMatchesPrefixERKNS_9IPAddressES2_m(ptr noundef nonnull align 8 dereferenceable(24) %4, ptr noundef nonnull align 8 dereferenceable(24) %1, i64 noundef %2)
          to label %22 unwind label %23

22:                                               ; preds = %20
  call void @_ZN3net9IPAddressD1Ev(ptr noundef nonnull align 8 dereferenceable(24) %4) #21
  call void @llvm.lifetime.end.p0(i64 24, ptr nonnull %4) #21
  br label %_ZN12_GLOBAL__N_120IPAddressPrefixCheckERKSt6vectorIhSaIhEEPKhm.exit

23:                                               ; preds = %20
  %24 = landingpad { ptr, i32 }
          cleanup
  call void @_ZN3net9IPAddressD1Ev(ptr noundef nonnull align 8 dereferenceable(24) %4) #21
  call void @llvm.lifetime.end.p0(i64 24, ptr nonnull %4) #21
  br label %52

25:                                               ; preds = %18
  call void @llvm.lifetime.start.p0(i64 24, ptr nonnull %5) #21
  call void @_ZN3net27ConvertIPv4ToIPv4MappedIPv6ERKNS_9IPAddressE(ptr dead_on_unwind nonnull writable sret(%"class.net::IPAddress") align 8 %5, ptr noundef nonnull align 8 dereferenceable(24) %1)
  %26 = add i64 %2, 96
  %27 = invoke noundef zeroext i1 @_ZN3net22IPAddressMatchesPrefixERKNS_9IPAddressES2_m(ptr noundef nonnull align 8 dereferenceable(24) %0, ptr noundef nonnull align 8 dereferenceable(24) %5, i64 noundef %26)
          to label %28 unwind label %29

28:                                               ; preds = %25
  call void @_ZN3net9IPAddressD1Ev(ptr noundef nonnull align 8 dereferenceable(24) %5) #21
  call void @llvm.lifetime.end.p0(i64 24, ptr nonnull %5) #21
  br label %_ZN12_GLOBAL__N_120IPAddressPrefixCheckERKSt6vectorIhSaIhEEPKhm.exit

29:                                               ; preds = %25
  %30 = landingpad { ptr, i32 }
          cleanup
  call void @_ZN3net9IPAddressD1Ev(ptr noundef nonnull align 8 dereferenceable(24) %5) #21
  call void @llvm.lifetime.end.p0(i64 24, ptr nonnull %5) #21
  br label %52

31:                                               ; preds = %3
  %32 = lshr i64 %2, 3
  %.not241.not.i = icmp ult i64 %2, 8
  br i1 %.not241.not.i, label %.critedge.i, label %.lr.ph.i

33:                                               ; preds = %.lr.ph.i
  %34 = add nuw nsw i64 %.0212.i, 1
  %exitcond.not.i = icmp eq i64 %34, %32
  br i1 %exitcond.not.i, label %.critedge.i, label %.lr.ph.i, !llvm.loop !17

.lr.ph.i:                                         ; preds = %31, %33
  %.0212.i = phi i64 [ %34, %33 ], [ 0, %31 ]
  %35 = getelementptr inbounds nuw i8, ptr %8, i64 %.0212.i
  %36 = load i8, ptr %35, align 1, !tbaa !13
  %37 = getelementptr inbounds nuw i8, ptr %14, i64 %.0212.i
  %38 = load i8, ptr %37, align 1, !tbaa !13
  %.not.i17 = icmp eq i8 %36, %38
  br i1 %.not.i17, label %33, label %_ZN12_GLOBAL__N_120IPAddressPrefixCheckERKSt6vectorIhSaIhEEPKhm.exit

.critedge.i:                                      ; preds = %33, %31
  %39 = and i64 %2, 7
  %.not25.i = icmp eq i64 %39, 0
  br i1 %.not25.i, label %51, label %40

40:                                               ; preds = %.critedge.i
  %41 = trunc nuw nsw i64 %39 to i16
  %42 = sub nuw nsw i16 8, %41
  %43 = shl nuw nsw i16 255, %42
  %44 = getelementptr inbounds nuw i8, ptr %8, i64 %32
  %45 = load i8, ptr %44, align 1, !tbaa !13
  %46 = getelementptr inbounds nuw i8, ptr %14, i64 %32
  %47 = load i8, ptr %46, align 1, !tbaa !13
  %48 = xor i8 %47, %45
  %49 = zext i8 %48 to i16
  %50 = and i16 %43, %49
  %.not26.i = icmp eq i16 %50, 0
  br i1 %.not26.i, label %51, label %_ZN12_GLOBAL__N_120IPAddressPrefixCheckERKSt6vectorIhSaIhEEPKhm.exit

51:                                               ; preds = %40, %.critedge.i
  br label %_ZN12_GLOBAL__N_120IPAddressPrefixCheckERKSt6vectorIhSaIhEEPKhm.exit

_ZN12_GLOBAL__N_120IPAddressPrefixCheckERKSt6vectorIhSaIhEEPKhm.exit: ; preds = %.lr.ph.i, %51, %40, %28, %22
  %.015 = phi i1 [ %21, %22 ], [ %27, %28 ], [ true, %51 ], [ false, %40 ], [ false, %.lr.ph.i ]
  ret i1 %.015

52:                                               ; preds = %29, %23
  %.pn = phi { ptr, i32 } [ %24, %23 ], [ %30, %29 ]
  resume { ptr, i32 } %.pn
}